(dp1
S'files'
p2
(dp3
S'_user_austine5_cse491_env_lib_python2_7_site-packages_nose_result'
p4
(dp5
S'index'
p6
(dp7
S'html_filename'
p8
S'_user_austine5_cse491_env_lib_python2_7_site-packages_nose_result.html'
p9
sS'name'
p10
S'/user/austine5/cse491.env/lib/python2.7/site-packages/nose/result'
p11
sS'nums'
p12
ccopy_reg
_reconstructor
p13
(ccoverage.results
Numbers
p14
c__builtin__
object
p15
NtRp16
(dp17
S'n_files'
p18
I1
sS'n_branches'
p19
I0
sS'n_statements'
p20
I131
sS'n_excluded'
p21
I0
sS'n_partial_branches'
p22
I0
sS'n_missing'
p23
I119
sS'n_missing_branches'
p24
I0
sbssS'hash'
p25
S'\xbfT\xf7\xbd\xe5\x8b\xec~E\x94\xba\xbd\xd9\xcc\x84\x97'
p26
ssS'_user_austine5_cse491_env_lib_python2_7_site-packages_nose_pyversion'
p27
(dp28
g6
(dp29
g8
S'_user_austine5_cse491_env_lib_python2_7_site-packages_nose_pyversion.html'
p30
sg10
S'/user/austine5/cse491.env/lib/python2.7/site-packages/nose/pyversion'
p31
sg12
g13
(g14
g15
NtRp32
(dp33
g18
I1
sg19
I0
sg20
I92
sg21
I0
sg22
I0
sg23
I88
sg24
I0
sbssg25
S'\xca^\x90\xcb%\xe3\xfdu\xf3\x85\x02?C\re\xa7'
p34
ssS'_user_austine5_cse491_env_lib_python2_7_site-packages_nose_plugins_manager'
p35
(dp36
g6
(dp37
g8
S'_user_austine5_cse491_env_lib_python2_7_site-packages_nose_plugins_manager.html'
p38
sg10
S'/user/austine5/cse491.env/lib/python2.7/site-packages/nose/plugins/manager'
p39
sg12
g13
(g14
g15
NtRp40
(dp41
g18
I1
sg19
I0
sg20
I265
sg21
I0
sg22
I0
sg23
I234
sg24
I0
sbssg25
S"\x06\x86\xacD~?\xc2d\x08C\xd2'xe5\xf8"
p42
ssS'_user_austine5_cse491_env_lib_python2_7_site-packages_nose_plugins_cover'
p43
(dp44
g6
(dp45
g8
S'_user_austine5_cse491_env_lib_python2_7_site-packages_nose_plugins_cover.html'
p46
sg10
S'/user/austine5/cse491.env/lib/python2.7/site-packages/nose/plugins/cover'
p47
sg12
g13
(g14
g15
NtRp48
(dp49
g18
I1
sg19
I0
sg20
I138
sg21
I0
sg22
I0
sg23
I134
sg24
I0
sbssg25
S'WX\x92{\x8f\x10\xee\xbe\xb6d\xc4M\xe3O\x07\x91'
p50
ssS'_user_austine5_cse491_env_lib_python2_7_site-packages_nose_suite'
p51
(dp52
g6
(dp53
g8
S'_user_austine5_cse491_env_lib_python2_7_site-packages_nose_suite.html'
p54
sg10
S'/user/austine5/cse491.env/lib/python2.7/site-packages/nose/suite'
p55
sg12
g13
(g14
g15
NtRp56
(dp57
g18
I1
sg19
I0
sg20
I394
sg21
I0
sg22
I0
sg23
I236
sg24
I0
sbssg25
S'd\x00\xf4\xb4)y\xaa\xed\xb1\x93C\xb5\xeb\x7f\xad\xd6'
p58
ssS'_user_austine5_cse491_env_lib_python2_7_site-packages_nose_plugins_errorclass'
p59
(dp60
g6
(dp61
g8
S'_user_austine5_cse491_env_lib_python2_7_site-packages_nose_plugins_errorclass.html'
p62
sg10
S'/user/austine5/cse491.env/lib/python2.7/site-packages/nose/plugins/errorclass'
p63
sg12
g13
(g14
g15
NtRp64
(dp65
g18
I1
sg19
I0
sg20
I65
sg21
I0
sg22
I0
sg23
I59
sg24
I0
sbssg25
S'4\x13v=\xdeK!\x190-\xf5\x00\xcd\n\x80_'
p66
ssS'_user_austine5_cse491_env_lib_python2_7_site-packages_nose_plugins_capture'
p67
(dp68
g6
(dp69
g8
S'_user_austine5_cse491_env_lib_python2_7_site-packages_nose_plugins_capture.html'
p70
sg10
S'/user/austine5/cse491.env/lib/python2.7/site-packages/nose/plugins/capture'
p71
sg12
g13
(g14
g15
NtRp72
(dp73
g18
I1
sg19
I0
sg20
I66
sg21
I0
sg22
I0
sg23
I58
sg24
I0
sbssg25
S'A\x0b\x9b\xf8\x01]\x89\xc4!FIjJ\xc0\x9a\xd5'
p74
ssS'server'
p75
(dp76
g6
(dp77
g8
S'server.html'
p78
sg10
g75
sg12
g13
(g14
g15
NtRp79
(dp80
g18
I1
sg19
I0
sg20
I54
sg21
I0
sg22
I0
sg23
I13
sg24
I0
sbssg25
S'\xfd\xd5=\x9eZy(\x99~<.\xa1&\xffv!'
p81
ssS'_user_austine5_cse491_env_lib_python2_7_site-packages_nose_importer'
p82
(dp83
g6
(dp84
g8
S'_user_austine5_cse491_env_lib_python2_7_site-packages_nose_importer.html'
p85
sg10
S'/user/austine5/cse491.env/lib/python2.7/site-packages/nose/importer'
p86
sg12
g13
(g14
g15
NtRp87
(dp88
g18
I1
sg19
I0
sg20
I101
sg21
I0
sg22
I0
sg23
I53
sg24
I0
sbssg25
S'\x9d\xbe<\xcdi\xa6=`!\xf4mX\xd7\x1a/*'
p89
ssS'_user_austine5_cse491_env_lib_python2_7_site-packages_nose_selector'
p90
(dp91
g6
(dp92
g8
S'_user_austine5_cse491_env_lib_python2_7_site-packages_nose_selector.html'
p93
sg10
S'/user/austine5/cse491.env/lib/python2.7/site-packages/nose/selector'
p94
sg12
g13
(g14
g15
NtRp95
(dp96
g18
I1
sg19
I0
sg20
I134
sg21
I0
sg22
I0
sg23
I75
sg24
I0
sbssg25
S'\xc2<\\Et\xda.\x83\xa8\xa6\x10\x15\x9a\x95\xfdL'
p97
ssS'_user_austine5_cse491_env_lib_python2_7_site-packages_nose_core'
p98
(dp99
g6
(dp100
g8
S'_user_austine5_cse491_env_lib_python2_7_site-packages_nose_core.html'
p101
sg10
S'/user/austine5/cse491.env/lib/python2.7/site-packages/nose/core'
p102
sg12
g13
(g14
g15
NtRp103
(dp104
g18
I1
sg19
I0
sg20
I162
sg21
I0
sg22
I0
sg23
I140
sg24
I0
sbssg25
S'\x92\xc0\x98\xbb\xb98\xd2F\xc0\x06p\xc9\xd3\xe5\x1cP'
p105
ssS'_user_austine5_cse491_env_lib_python2_7_site-packages_nose_loader'
p106
(dp107
g6
(dp108
g8
S'_user_austine5_cse491_env_lib_python2_7_site-packages_nose_loader.html'
p109
sg10
S'/user/austine5/cse491.env/lib/python2.7/site-packages/nose/loader'
p110
sg12
g13
(g14
g15
NtRp111
(dp112
g18
I1
sg19
I0
sg20
I351
sg21
I0
sg22
I0
sg23
I239
sg24
I0
sbssg25
S'\xa6\xfa\xbb\xc1\xddXJN\xd2\xa9\xa6]\xe1=\xdb9'
p113
ssS'_user_austine5_cse491_env_lib_python2_7_site-packages_nose_util'
p114
(dp115
g6
(dp116
g8
S'_user_austine5_cse491_env_lib_python2_7_site-packages_nose_util.html'
p117
sg10
S'/user/austine5/cse491.env/lib/python2.7/site-packages/nose/util'
p118
sg12
g13
(g14
g15
NtRp119
(dp120
g18
I1
sg19
I0
sg20
I341
sg21
I0
sg22
I0
sg23
I277
sg24
I0
sbssg25
S'\xd7< S4\xc0\x9e\xb1\xb5a\x07\xddwA\xf0!'
p121
ssS'_user_austine5_cse491_env_lib_python2_7_site-packages_nose_proxy'
p122
(dp123
g6
(dp124
g8
S'_user_austine5_cse491_env_lib_python2_7_site-packages_nose_proxy.html'
p125
sg10
S'/user/austine5/cse491.env/lib/python2.7/site-packages/nose/proxy'
p126
sg12
g13
(g14
g15
NtRp127
(dp128
g18
I1
sg19
I0
sg20
I108
sg21
I0
sg22
I0
sg23
I75
sg24
I0
sbssg25
S'\xa8?\x17\xc2j\xad\x13\xe7\x98w\xd3~\xe8\n\xc1\xe2'
p129
ssS'test_server'
p130
(dp131
g6
(dp132
g8
S'test_server.html'
p133
sg10
g130
sg12
g13
(g14
g15
NtRp134
(dp135
g18
I1
sg19
I0
sg20
I52
sg21
I0
sg22
I0
sg23
I2
sg24
I0
sbssg25
S'$\x81R\x8d\xbb\xd4\xbdb\xf4\xedQXk\x85\xed\xf1'
p136
ssS'_user_austine5_cse491_env_lib_python2_7_site-packages_nose_case'
p137
(dp138
g6
(dp139
g8
S'_user_austine5_cse491_env_lib_python2_7_site-packages_nose_case.html'
p140
sg10
S'/user/austine5/cse491.env/lib/python2.7/site-packages/nose/case'
p141
sg12
g13
(g14
g15
NtRp142
(dp143
g18
I1
sg19
I0
sg20
I204
sg21
I0
sg22
I0
sg23
I163
sg24
I0
sbssg25
S'\xedk3\xdb{\xf7\x95\xec\xcf\x98\xf2\xad46\xa7\xae'
p144
ssS'_user_austine5_cse491_env_lib_python2_7_site-packages_nose_plugins_logcapture'
p145
(dp146
g6
(dp147
g8
S'_user_austine5_cse491_env_lib_python2_7_site-packages_nose_plugins_logcapture.html'
p148
sg10
S'/user/austine5/cse491.env/lib/python2.7/site-packages/nose/plugins/logcapture'
p149
sg12
g13
(g14
g15
NtRp150
(dp151
g18
I1
sg19
I0
sg20
I125
sg21
I0
sg22
I0
sg23
I114
sg24
I0
sbssg25
S'\xccN\xe6\x86\x88`\x1e\xb7\xeb\xf4\x14^\x8f\xa5-\xf2'
p152
sssS'version'
p153
S'3.7.1'
p154
sS'settings'
p155
S'\x98\xa8x\xfe"r\xb5K\x98\xb1N\\\x99\x9e\xf3\xe5'
p156
sS'format'
p157
I1
s.